; Function Attrs: nounwind uwtable
define dso_local ptr @get_dh2048(ptr noundef %0) local_unnamed_addr #0 {
  %2 = tail call ptr @BN_new() #3
  %3 = icmp eq ptr %2, null
  br i1 %3, label %11, label %4

4:                                                ; preds = %1
  %5 = tail call i32 @BN_set_word(ptr noundef nonnull %2, i64 noundef 2) #3
  %.not = icmp eq i32 %5, 0
  br i1 %.not, label %11, label %6

6:                                                ; preds = %4
  %7 = tail call ptr @BN_get_rfc3526_prime_2048(ptr noundef null) #3
  %8 = icmp eq ptr %7, null
  br i1 %8, label %11, label %9

9:                                                ; preds = %6
  %10 = tail call fastcc ptr @get_dh_from_pg_bn(ptr noundef %0, ptr noundef nonnull @.str, ptr noundef %7, ptr noundef %2, ptr noundef null)
  br label %11

11:                                               ; preds = %6, %1, %4, %9
  %.09 = phi ptr [ null, %1 ], [ null, %6 ], [ %7, %9 ], [ null, %4 ]
  %.0 = phi ptr [ null, %1 ], [ null, %6 ], [ %10, %9 ], [ null, %4 ]
  tail call void @BN_free(ptr noundef %.09) #3
  tail call void @BN_free(ptr noundef %2) #3
  ret ptr %.0
}